; Function Attrs: mustprogress nounwind uwtable
define hidden void @_ZN12CodeEmitInfoC2EPS_P10ValueStack(ptr nocapture noundef nonnull writeonly align 8 dereferenceable(43) %0, ptr nocapture noundef readonly %1, ptr noundef %2) unnamed_addr #0 align 2 {
  store ptr null, ptr %0, align 8
  %4 = getelementptr inbounds i8, ptr %0, i64 8
  %5 = getelementptr inbounds i8, ptr %1, i64 8
  %6 = load ptr, ptr %5, align 8
  store ptr %6, ptr %4, align 8
  %7 = getelementptr inbounds i8, ptr %0, i64 16
  %8 = getelementptr inbounds i8, ptr %0, i64 32
  %9 = icmp eq ptr %2, null
  tail call void @llvm.memset.p0.i64(ptr noundef nonnull align 8 dereferenceable(16) %7, i8 0, i64 16, i1 false)
  br i1 %9, label %10, label %13

10:                                               ; preds = %3
  %11 = getelementptr inbounds i8, ptr %1, i64 32
  %12 = load ptr, ptr %11, align 8
  br label %13

13:                                               ; preds = %3, %10
  %14 = phi ptr [ %12, %10 ], [ %2, %3 ]
  store ptr %14, ptr %8, align 8
  %15 = getelementptr inbounds i8, ptr %0, i64 40
  %16 = getelementptr inbounds i8, ptr %1, i64 40
  %17 = load i8, ptr %16, align 8
  %18 = and i8 %17, 1
  store i8 %18, ptr %15, align 8
  %19 = getelementptr inbounds i8, ptr %0, i64 41
  %20 = getelementptr inbounds i8, ptr %1, i64 41
  %21 = load i8, ptr %20, align 1
  %22 = and i8 %21, 1
  store i8 %22, ptr %19, align 1
  %23 = getelementptr inbounds i8, ptr %0, i64 42
  %24 = getelementptr inbounds i8, ptr %1, i64 42
  %25 = load i8, ptr %24, align 2
  %26 = and i8 %25, 1
  store i8 %26, ptr %23, align 2
  %27 = getelementptr inbounds i8, ptr %1, i64 16
  %28 = load ptr, ptr %27, align 8
  %.not = icmp eq ptr %28, null
  br i1 %.not, label %52, label %29

29:                                               ; preds = %13
  %30 = tail call align 8 ptr @llvm.threadlocal.address.p0(ptr align 8 @_ZN6Thread12_thr_currentE)
  %31 = load ptr, ptr %30, align 8
  %32 = getelementptr inbounds i8, ptr %31, i64 1808
  %33 = load ptr, ptr %32, align 8
  %34 = getelementptr inbounds i8, ptr %33, i64 128
  %35 = load ptr, ptr %34, align 8
  %36 = load ptr, ptr %35, align 8
  %37 = getelementptr inbounds i8, ptr %36, i64 40
  %38 = load ptr, ptr %37, align 8
  %39 = getelementptr inbounds i8, ptr %36, i64 32
  %40 = load ptr, ptr %39, align 8
  %41 = ptrtoint ptr %38 to i64
  %42 = ptrtoint ptr %40 to i64
  %43 = sub i64 %41, %42
  %.not.i.i.i = icmp ult i64 %43, 24
  br i1 %.not.i.i.i, label %46, label %44

44:                                               ; preds = %29
  %45 = getelementptr inbounds i8, ptr %40, i64 24
  store ptr %45, ptr %39, align 8
  br label %_ZN22CompilationResourceObjnwEm.exit

46:                                               ; preds = %29
  %47 = tail call noundef ptr @_ZN5Arena4growEmN17AllocFailStrategy13AllocFailEnumE(ptr noundef nonnull align 8 dereferenceable(48) %36, i64 noundef 24, i32 noundef 0) #19
  br label %_ZN22CompilationResourceObjnwEm.exit

_ZN22CompilationResourceObjnwEm.exit:             ; preds = %44, %46
  %.0.i.i.i = phi ptr [ %40, %44 ], [ %47, %46 ]
  %48 = icmp eq ptr %.0.i.i.i, null
  br i1 %48, label %51, label %49

49:                                               ; preds = %_ZN22CompilationResourceObjnwEm.exit
  %50 = load ptr, ptr %27, align 8
  tail call void @_ZN9XHandlersC2EPS_(ptr noundef nonnull align 8 dereferenceable(24) %.0.i.i.i, ptr noundef %50)
  br label %51

51:                                               ; preds = %49, %_ZN22CompilationResourceObjnwEm.exit
  store ptr %.0.i.i.i, ptr %7, align 8
  br label %52

52:                                               ; preds = %51, %13
  ret void
}